target datalayout = "e-m:e-p270:32:32-p271:32:32-p272:64:64-i64:64-i128:128-f80:128-n8:16:32:64-S128"
target triple = "x86_64-pc-linux-gnu"

%struct.PyAnimal = type { %struct.Animal, %"struct.nanobind::detail::trampoline" }
%struct.Animal = type { ptr }
%"struct.nanobind::detail::trampoline" = type { [7 x ptr] }

@_ZL10destructed = internal global i32 0, align 4

; Function Attrs: mustprogress nounwind optsize uwtable
define linkonce_odr hidden void @_ZN6AnimalD2Ev(ptr noundef nonnull align 8 dereferenceable(8) %0) unnamed_addr #1 comdat align 2 {
  %2 = alloca ptr, align 8
  store ptr %0, ptr %2, align 8, !tbaa !644
  ret void
}

; Function Attrs: alwaysinline mustprogress nounwind optsize uwtable
define linkonce_odr hidden void @_ZN8nanobind6detail10trampolineILm3EED2Ev(ptr noundef nonnull align 8 dereferenceable(56) %0) unnamed_addr #5 comdat align 2 {
  %2 = alloca ptr, align 8
  store ptr %0, ptr %2, align 8, !tbaa !645
  %3 = load ptr, ptr %2, align 8
  %4 = getelementptr inbounds nuw %"struct.nanobind::detail::trampoline", ptr %3, i32 0, i32 0
  %5 = getelementptr inbounds [7 x ptr], ptr %4, i64 0, i64 0
  call void @_ZN8nanobind6detail18trampoline_releaseEPPvm(ptr noundef %5, i64 noundef 3) #24
  ret void
}

; Function Attrs: mustprogress nounwind optsize uwtable
define internal void @_ZZL30nanobind_init_test_classes_extRN8nanobind7module_EEN8PyAnimalD2Ev(ptr noundef nonnull align 8 dereferenceable(64) %0) unnamed_addr #1 align 2 {
  %2 = alloca ptr, align 8
  store ptr %0, ptr %2, align 8, !tbaa !642
  %3 = load ptr, ptr %2, align 8
  store ptr getelementptr inbounds inrange(-16, 40) ({ [7 x ptr] }, ptr @_ZTVZL30nanobind_init_test_classes_extRN8nanobind7module_EE8PyAnimal, i32 0, i32 0, i32 2), ptr %3, align 8, !tbaa !38
  %4 = load i32, ptr @_ZL10destructed, align 4, !tbaa !26
  %5 = add nsw i32 %4, 1
  store i32 %5, ptr @_ZL10destructed, align 4, !tbaa !26
  %6 = getelementptr inbounds nuw %struct.PyAnimal, ptr %3, i32 0, i32 1
  call void @_ZN8nanobind6detail10trampolineILm3EED2Ev(ptr noundef nonnull align 8 dereferenceable(56) %6) #24
  call void @_ZN6AnimalD2Ev(ptr noundef nonnull align 8 dereferenceable(8) %3) #24
  ret void
}