; Function Attrs: mustprogress nounwind optsize uwtable
define internal void @_ZZL30nanobind_init_test_classes_extRN8nanobind7module_EEN8PyAnimalD2Ev(ptr noundef nonnull align 8 dereferenceable(64) initializes((0, 8)) %0) unnamed_addr #0 align 2 {
  store ptr getelementptr inbounds nuw inrange(-16, 40) (i8, ptr @_ZTVZL30nanobind_init_test_classes_extRN8nanobind7module_EE8PyAnimal, i64 16), ptr %0, align 8, !tbaa !24
  %2 = load i32, ptr @_ZL10destructed, align 4, !tbaa !32
  %3 = add nsw i32 %2, 1
  store i32 %3, ptr @_ZL10destructed, align 4, !tbaa !32
  %4 = getelementptr inbounds nuw i8, ptr %0, i64 8
  tail call void @_ZN8nanobind6detail18trampoline_releaseEPPvm(ptr noundef nonnull align 8 dereferenceable(56) %4, i64 noundef 3) #35
  ret void
}